target datalayout = "e-m:e-p270:32:32-p271:32:32-p272:64:64-i64:64-i128:128-f80:128-n8:16:32:64-S128"
target triple = "x86_64-pc-linux-gnu"

%union.pthread_mutex_t = type { %struct.__pthread_mutex_s }
%struct.__pthread_mutex_s = type { i32, i32, i32, i32, i32, i16, i16, %struct.__pthread_internal_list }
%struct.__pthread_internal_list = type { ptr, ptr }
%struct.tMPI_Thread = type { i64, i32 }

@_ZL13thread_id_key = internal global i32 0, align 4
@_ZL15thread_id_mutex = internal global %union.pthread_mutex_t zeroinitializer, align 8
@_ZL25thread_id_key_initialized = internal global i32 0, align 4

; Function Attrs: mustprogress nounwind uwtable
define internal noundef ptr @_ZL22tMPI_Set_thread_id_keyi(i32 noundef %0) #0 {
  %2 = alloca ptr, align 8
  %3 = alloca i32, align 4
  %4 = alloca ptr, align 8
  store i32 %0, ptr %3, align 4
  %5 = call noalias ptr @malloc(i64 noundef 16) #9
  store ptr %5, ptr %4, align 8
  %6 = load ptr, ptr %4, align 8
  %7 = icmp eq ptr %6, null
  br i1 %7, label %8, label %9

8:                                                ; preds = %1
  store ptr null, ptr %2, align 8
  br label %20

9:                                                ; preds = %1
  %10 = call i64 @pthread_self() #10
  %11 = load ptr, ptr %4, align 8
  %12 = getelementptr inbounds %struct.tMPI_Thread, ptr %11, i32 0, i32 0
  store i64 %10, ptr %12, align 8
  %13 = load i32, ptr %3, align 4
  %14 = load ptr, ptr %4, align 8
  %15 = getelementptr inbounds %struct.tMPI_Thread, ptr %14, i32 0, i32 1
  store i32 %13, ptr %15, align 8
  %16 = load i32, ptr @_ZL13thread_id_key, align 4
  %17 = load ptr, ptr %4, align 8
  %18 = call i32 @pthread_setspecific(i32 noundef %16, ptr noundef %17) #8
  %19 = load ptr, ptr %4, align 8
  store ptr %19, ptr %2, align 8
  br label %20

20:                                               ; preds = %9, %8
  %21 = load ptr, ptr %2, align 8
  ret ptr %21
}

; Function Attrs: mustprogress uwtable
define internal noundef i32 @_ZL20tMPI_Init_thread_idsv() #2 {
  %1 = alloca i32, align 4
  %2 = alloca i32, align 4
  %3 = alloca ptr, align 8
  %4 = call i32 @pthread_mutex_lock(ptr noundef @_ZL15thread_id_mutex) #8
  store i32 %4, ptr %2, align 4
  %5 = load i32, ptr %2, align 4
  %6 = icmp ne i32 %5, 0
  br i1 %6, label %7, label %9

7:                                                ; preds = %0
  %8 = load i32, ptr %2, align 4
  store i32 %8, ptr %1, align 4
  br label %29

9:                                                ; preds = %0
  %10 = load i32, ptr @_ZL25thread_id_key_initialized, align 4
  %11 = icmp ne i32 %10, 0
  br i1 %11, label %23, label %12

12:                                               ; preds = %9
  store i32 1, ptr @_ZL25thread_id_key_initialized, align 4
  %13 = call i32 @pthread_key_create(ptr noundef @_ZL13thread_id_key, ptr noundef @_ZL22tMPI_Destroy_thread_idPv) #8
  store i32 %13, ptr %2, align 4
  %14 = load i32, ptr %2, align 4
  %15 = icmp ne i32 %14, 0
  br i1 %15, label %16, label %17

16:                                               ; preds = %12
  br label %26

17:                                               ; preds = %12
  %18 = call noundef ptr @_ZL22tMPI_Set_thread_id_keyi(i32 noundef 0)
  store ptr %18, ptr %3, align 8
  %19 = load ptr, ptr %3, align 8
  %20 = icmp eq ptr %19, null
  br i1 %20, label %21, label %22

21:                                               ; preds = %17
  store i32 12, ptr %2, align 4
  br label %26

22:                                               ; preds = %17
  br label %23

23:                                               ; preds = %22, %9
  %24 = call i32 @pthread_mutex_unlock(ptr noundef @_ZL15thread_id_mutex) #8
  store i32 %24, ptr %2, align 4
  %25 = load i32, ptr %2, align 4
  store i32 %25, ptr %1, align 4
  br label %29

26:                                               ; preds = %21, %16
  %27 = call i32 @pthread_mutex_unlock(ptr noundef @_ZL15thread_id_mutex) #8
  %28 = load i32, ptr %2, align 4
  store i32 %28, ptr %1, align 4
  br label %29

29:                                               ; preds = %26, %23, %7
  %30 = load i32, ptr %1, align 4
  ret i32 %30
}