; Function Attrs: mustprogress nounwind uwtable
define internal fastcc noundef i32 @_ZL20tMPI_Init_thread_idsv() unnamed_addr #1 {
  %1 = tail call i32 @pthread_mutex_lock(ptr noundef nonnull @_ZL15thread_id_mutex) #13
  %.not = icmp eq i32 %1, 0
  br i1 %.not, label %2, label %15

2:                                                ; preds = %0
  %.b = load i1, ptr @_ZL25thread_id_key_initialized, align 4
  br i1 %.b, label %12, label %3

3:                                                ; preds = %2
  store i1 true, ptr @_ZL25thread_id_key_initialized, align 4
  %4 = tail call i32 @pthread_key_create(ptr noundef nonnull @_ZL13thread_id_key, ptr noundef nonnull @_ZL22tMPI_Destroy_thread_idPv) #13
  %.not9 = icmp eq i32 %4, 0
  br i1 %.not9, label %5, label %_ZL22tMPI_Set_thread_id_keyi.exit.thread

5:                                                ; preds = %3
  %6 = tail call noalias dereferenceable_or_null(16) ptr @malloc(i64 noundef 16) #14
  %7 = icmp eq ptr %6, null
  br i1 %7, label %_ZL22tMPI_Set_thread_id_keyi.exit.thread, label %_ZL22tMPI_Set_thread_id_keyi.exit

_ZL22tMPI_Set_thread_id_keyi.exit:                ; preds = %5
  %8 = tail call i64 @pthread_self() #15
  store i64 %8, ptr %6, align 8
  %9 = getelementptr inbounds i8, ptr %6, i64 8
  store i32 0, ptr %9, align 8
  %10 = load i32, ptr @_ZL13thread_id_key, align 4
  %11 = tail call i32 @pthread_setspecific(i32 noundef %10, ptr noundef nonnull %6) #13
  br label %12

12:                                               ; preds = %_ZL22tMPI_Set_thread_id_keyi.exit, %2
  %13 = tail call i32 @pthread_mutex_unlock(ptr noundef nonnull @_ZL15thread_id_mutex) #13
  br label %15

_ZL22tMPI_Set_thread_id_keyi.exit.thread:         ; preds = %5, %3
  %.06 = phi i32 [ %4, %3 ], [ 12, %5 ]
  %14 = tail call i32 @pthread_mutex_unlock(ptr noundef nonnull @_ZL15thread_id_mutex) #13
  br label %15

15:                                               ; preds = %0, %_ZL22tMPI_Set_thread_id_keyi.exit.thread, %12
  %.0 = phi i32 [ %13, %12 ], [ %.06, %_ZL22tMPI_Set_thread_id_keyi.exit.thread ], [ %1, %0 ]
  ret i32 %.0
}